ccopy_reg
_reconstructor
p1
(cHistory
HistoryTree
p2
c__builtin__
object
p3
NtRp4
(dp5
S'_active_child_node'
p6
NsS'name'
p7
VMarciniak2002_fcf_header_P21n
p8
sS'_full_index'
p9
(dp10
g8
g4
ssS'_children'
p11
(lp12
sS'hklFiles'
p13
(dp14
sS'link_table'
p15
(lp16
sS'label'
p17
S'root'
p18
sS'_active_node'
p19
NsS'version'
p20
F2.2000000000000002
sS'next_sol_num'
p21
I1
sS'_primary_parent_node'
p22
NsS'hklFilesMap'
p23
(dp24
sb.